target datalayout = "e-m:e-p270:32:32-p271:32:32-p272:64:64-i64:64-i128:128-f80:128-n8:16:32:64-S128"
target triple = "x86_64-pc-linux-gnu"

; Function Attrs: mustprogress uwtable
define i32 @ustr_hashICharsN_77(ptr noundef %0, i32 noundef %1) #0 {
  %3 = alloca ptr, align 8
  %4 = alloca i32, align 4
  %5 = alloca i32, align 4
  %6 = alloca ptr, align 8
  %7 = alloca i32, align 4
  %8 = alloca i32, align 4
  %9 = alloca ptr, align 8
  store ptr %0, ptr %3, align 8, !tbaa !73
  store i32 %1, ptr %4, align 4, !tbaa !8
  br label %10

10:                                               ; preds = %2
  call void @llvm.lifetime.start.p0(i64 4, ptr %5) #7
  store i32 0, ptr %5, align 4, !tbaa !8
  call void @llvm.lifetime.start.p0(i64 8, ptr %6) #7
  %11 = load ptr, ptr %3, align 8, !tbaa !73
  store ptr %11, ptr %6, align 8, !tbaa !73
  %12 = load ptr, ptr %6, align 8, !tbaa !73
  %13 = icmp ne ptr %12, null
  br i1 %13, label %14, label %41

14:                                               ; preds = %10
  call void @llvm.lifetime.start.p0(i64 4, ptr %7) #7
  %15 = load i32, ptr %4, align 4, !tbaa !8
  store i32 %15, ptr %7, align 4, !tbaa !8
  call void @llvm.lifetime.start.p0(i64 4, ptr %8) #7
  %16 = load i32, ptr %7, align 4, !tbaa !8
  %17 = sub nsw i32 %16, 32
  %18 = sdiv i32 %17, 32
  %19 = add nsw i32 %18, 1
  store i32 %19, ptr %8, align 4, !tbaa !8
  call void @llvm.lifetime.start.p0(i64 8, ptr %9) #7
  %20 = load ptr, ptr %6, align 8, !tbaa !73
  %21 = load i32, ptr %7, align 4, !tbaa !8
  %22 = sext i32 %21 to i64
  %23 = getelementptr inbounds i8, ptr %20, i64 %22
  store ptr %23, ptr %9, align 8, !tbaa !73
  br label %24

24:                                               ; preds = %28, %14
  %25 = load ptr, ptr %6, align 8, !tbaa !73
  %26 = load ptr, ptr %9, align 8, !tbaa !73
  %27 = icmp ult ptr %25, %26
  br i1 %27, label %28, label %40

28:                                               ; preds = %24
  %29 = load i32, ptr %5, align 4, !tbaa !8
  %30 = mul i32 %29, 37
  %31 = load ptr, ptr %6, align 8, !tbaa !73
  %32 = load i8, ptr %31, align 1, !tbaa !30
  %33 = call signext i8 @uprv_asciitolower_77(i8 noundef signext %32)
  %34 = zext i8 %33 to i32
  %35 = add i32 %30, %34
  store i32 %35, ptr %5, align 4, !tbaa !8
  %36 = load i32, ptr %8, align 4, !tbaa !8
  %37 = load ptr, ptr %6, align 8, !tbaa !73
  %38 = sext i32 %36 to i64
  %39 = getelementptr inbounds i8, ptr %37, i64 %38
  store ptr %39, ptr %6, align 8, !tbaa !73
  br label %24, !llvm.loop !84

40:                                               ; preds = %24
  call void @llvm.lifetime.end.p0(i64 8, ptr %9) #7
  call void @llvm.lifetime.end.p0(i64 4, ptr %8) #7
  call void @llvm.lifetime.end.p0(i64 4, ptr %7) #7
  br label %41

41:                                               ; preds = %40, %10
  %42 = load i32, ptr %5, align 4, !tbaa !8
  call void @llvm.lifetime.end.p0(i64 8, ptr %6) #7
  call void @llvm.lifetime.end.p0(i64 4, ptr %5) #7
  ret i32 %42

43:                                               ; No predecessors!
  unreachable
}